(icantrell.builder
BuildContext
p0
(dp1
S'compat'
p2
I00
sS'obj_format'
p3
NsS'compiler_info'
p4
Vcc (GCC) 4.8.2 20131219 (prerelease)
p5
sS'cc'
p6
g6
sS'arch'
p7
S'generic'
p8
sS'assembler'
p9
NsS'system'
p10
S'linux'
p11
sS'platform'
p12
g11
sS'prefix'
p13
S'/usr/local'
p14
sS'features'
p15
(lp16
sS'shared'
p17
I00
sS'output'
p18
S'makefile'
p19
sS'lto'
p20
I00
sS'compiler'
p21
Vgcc
p22
sb.